target datalayout = "e-m:e-p270:32:32-p271:32:32-p272:64:64-i64:64-i128:128-f80:128-n8:16:32:64-S128"
target triple = "x86_64-pc-linux-gnu"

%struct.DefElem = type { i32, ptr, ptr, ptr, i32, i32 }
%struct.Node = type { i32 }
%union.ListCell = type { ptr }

@.str = private unnamed_addr constant [24 x i8] c"%s requires a parameter\00", align 1
@.str.1 = private unnamed_addr constant [9 x i8] c"define.c\00", align 1
@__func__.defGetTypeName = private unnamed_addr constant [15 x i8] c"defGetTypeName\00", align 1
@.str.13 = private unnamed_addr constant [35 x i8] c"argument of %s must be a type name\00", align 1

; Function Attrs: nounwind uwtable
define dso_local ptr @defGetTypeName(ptr noundef %0) #0 {
  %2 = alloca ptr, align 8
  %3 = alloca ptr, align 8
  %4 = alloca %union.ListCell, align 8
  store ptr %0, ptr %3, align 8
  %5 = load ptr, ptr %3, align 8
  %6 = getelementptr inbounds nuw %struct.DefElem, ptr %5, i32 0, i32 3
  %7 = load ptr, ptr %6, align 8
  %8 = icmp eq ptr %7, null
  br i1 %8, label %9, label %23

9:                                                ; preds = %1
  br label %10

10:                                               ; preds = %9
  br i1 true, label %11, label %13

11:                                               ; preds = %10
  %12 = call zeroext i1 @errstart_cold(i32 noundef 21, ptr noundef null) #9
  br i1 %12, label %15, label %21

13:                                               ; preds = %10
  %14 = call zeroext i1 @errstart(i32 noundef 21, ptr noundef null)
  br i1 %14, label %15, label %21

15:                                               ; preds = %13, %11
  %16 = call i32 @errcode(i32 noundef 16801924)
  %17 = load ptr, ptr %3, align 8
  %18 = getelementptr inbounds nuw %struct.DefElem, ptr %17, i32 0, i32 2
  %19 = load ptr, ptr %18, align 8
  %20 = call i32 (ptr, ...) @errmsg(ptr noundef @.str, ptr noundef %19)
  call void @errfinish(ptr noundef @.str.1, i32 noundef 277, ptr noundef @__func__.defGetTypeName)
  br label %21

21:                                               ; preds = %15, %13, %11
  unreachable

22:                                               ; No predecessors!
  br label %23

23:                                               ; preds = %22, %1
  %24 = load ptr, ptr %3, align 8
  %25 = getelementptr inbounds nuw %struct.DefElem, ptr %24, i32 0, i32 3
  %26 = load ptr, ptr %25, align 8
  %27 = getelementptr inbounds nuw %struct.Node, ptr %26, i32 0, i32 0
  %28 = load i32, ptr %27, align 4
  switch i32 %28, label %41 [
    i32 68, label %29
    i32 467, label %33
  ]

29:                                               ; preds = %23
  %30 = load ptr, ptr %3, align 8
  %31 = getelementptr inbounds nuw %struct.DefElem, ptr %30, i32 0, i32 3
  %32 = load ptr, ptr %31, align 8
  store ptr %32, ptr %2, align 8
  br label %56

33:                                               ; preds = %23
  %34 = load ptr, ptr %3, align 8
  %35 = getelementptr inbounds nuw %struct.DefElem, ptr %34, i32 0, i32 3
  %36 = load ptr, ptr %35, align 8
  store ptr %36, ptr %4, align 8
  %37 = getelementptr inbounds nuw %union.ListCell, ptr %4, i32 0, i32 0
  %38 = load ptr, ptr %37, align 8
  %39 = call ptr @list_make1_impl(i32 noundef 1, ptr %38)
  %40 = call ptr @makeTypeNameFromNameList(ptr noundef %39)
  store ptr %40, ptr %2, align 8
  br label %56

41:                                               ; preds = %23
  br label %42

42:                                               ; preds = %41
  br i1 true, label %43, label %45

43:                                               ; preds = %42
  %44 = call zeroext i1 @errstart_cold(i32 noundef 21, ptr noundef null) #9
  br i1 %44, label %47, label %53

45:                                               ; preds = %42
  %46 = call zeroext i1 @errstart(i32 noundef 21, ptr noundef null)
  br i1 %46, label %47, label %53

47:                                               ; preds = %45, %43
  %48 = call i32 @errcode(i32 noundef 16801924)
  %49 = load ptr, ptr %3, align 8
  %50 = getelementptr inbounds nuw %struct.DefElem, ptr %49, i32 0, i32 2
  %51 = load ptr, ptr %50, align 8
  %52 = call i32 (ptr, ...) @errmsg(ptr noundef @.str.13, ptr noundef %51)
  call void @errfinish(ptr noundef @.str.1, i32 noundef 289, ptr noundef @__func__.defGetTypeName)
  br label %53

53:                                               ; preds = %47, %45, %43
  unreachable

54:                                               ; No predecessors!
  br label %55

55:                                               ; preds = %54
  store ptr null, ptr %2, align 8
  br label %56

56:                                               ; preds = %55, %33, %29
  %57 = load ptr, ptr %2, align 8
  ret ptr %57
}