; Function Attrs: nounwind uwtable
define dso_local ptr @defGetTypeName(ptr noundef readonly captures(none) %0) local_unnamed_addr #0 {
  %2 = getelementptr inbounds nuw i8, ptr %0, i64 24
  %3 = load ptr, ptr %2, align 8
  %4 = icmp eq ptr %3, null
  br i1 %4, label %5, label %11

5:                                                ; preds = %1
  %6 = tail call zeroext i1 @errstart_cold(i32 noundef 21, ptr noundef null) #6
  tail call void @llvm.assume(i1 %6)
  %7 = tail call i32 @errcode(i32 noundef 16801924) #7
  %8 = getelementptr inbounds nuw i8, ptr %0, i64 16
  %9 = load ptr, ptr %8, align 8
  %10 = tail call i32 (ptr, ...) @errmsg(ptr noundef nonnull @.str, ptr noundef %9) #7
  tail call void @errfinish(ptr noundef nonnull @.str.1, i32 noundef 277, ptr noundef nonnull @__func__.defGetTypeName) #7
  unreachable

11:                                               ; preds = %1
  %12 = load i32, ptr %3, align 4
  switch i32 %12, label %16 [
    i32 68, label %22
    i32 467, label %13
  ]

13:                                               ; preds = %11
  %14 = tail call ptr @list_make1_impl(i32 noundef 1, ptr nonnull %3) #7
  %15 = tail call ptr @makeTypeNameFromNameList(ptr noundef %14) #7
  br label %22

16:                                               ; preds = %11
  %17 = tail call zeroext i1 @errstart_cold(i32 noundef 21, ptr noundef null) #6
  tail call void @llvm.assume(i1 %17)
  %18 = tail call i32 @errcode(i32 noundef 16801924) #7
  %19 = getelementptr inbounds nuw i8, ptr %0, i64 16
  %20 = load ptr, ptr %19, align 8
  %21 = tail call i32 (ptr, ...) @errmsg(ptr noundef nonnull @.str.13, ptr noundef %20) #7
  tail call void @errfinish(ptr noundef nonnull @.str.1, i32 noundef 289, ptr noundef nonnull @__func__.defGetTypeName) #7
  unreachable

22:                                               ; preds = %11, %13
  %.0 = phi ptr [ %15, %13 ], [ %3, %11 ]
  ret ptr %.0
}